target datalayout = "e-m:e-p270:32:32-p271:32:32-p272:64:64-i64:64-i128:128-f80:128-n8:16:32:64-S128"
target triple = "x86_64-pc-linux-gnu"

%struct.sigaction = type { %union.anon, %struct.__sigset_t, i32, ptr }
%union.anon = type { ptr }
%struct.__sigset_t = type { [16 x i64] }
%struct.SDL_EVDEV_keyboard_state = type { i32, i8, i32, ptr, [9 x i8], i8, i32, ptr, i32, i8, i8, i8, i8, i8, [128 x i8], i32, ptr, ptr, ptr, ptr }

@old_sigaction = internal global [65 x %struct.sigaction] zeroinitializer, align 16
@kbd_cleanup_state = internal global ptr null, align 8
@SDL_EVDEV_kdb_cleanup_siginfo = internal global ptr null, align 8
@SDL_EVDEV_kdb_cleanup_ucontext = internal global ptr null, align 8

; Function Attrs: nounwind uwtable
define internal void @SDL_EVDEV_kbd_reraise_signal(i32 noundef %0) #0 {
  %2 = alloca i32, align 4
  store i32 %0, ptr %2, align 4
  %3 = load i32, ptr %2, align 4
  %4 = call i32 @raise(i32 noundef %3) #7
  ret void
}

; Function Attrs: nounwind uwtable
define internal void @kbd_cleanup() #0 {
  %1 = alloca ptr, align 8
  %2 = alloca i32, align 4
  call void @llvm.lifetime.start.p0(i64 8, ptr %1) #7
  %3 = load ptr, ptr @kbd_cleanup_state, align 8
  store ptr %3, ptr %1, align 8
  %4 = load ptr, ptr %1, align 8
  %5 = icmp ne ptr %4, null
  br i1 %5, label %7, label %6

6:                                                ; preds = %0
  store i32 1, ptr %2, align 4
  br label %15

7:                                                ; preds = %0
  store ptr null, ptr @kbd_cleanup_state, align 8
  %8 = load ptr, ptr %1, align 8
  %9 = getelementptr inbounds nuw %struct.SDL_EVDEV_keyboard_state, ptr %8, i32 0, i32 0
  %10 = load i32, ptr %9, align 8
  %11 = load ptr, ptr %1, align 8
  %12 = getelementptr inbounds nuw %struct.SDL_EVDEV_keyboard_state, ptr %11, i32 0, i32 2
  %13 = load i32, ptr %12, align 8
  %14 = call i32 (i32, i64, ...) @ioctl(i32 noundef %10, i64 noundef 19269, i32 noundef %13) #7
  store i32 0, ptr %2, align 4
  br label %15

15:                                               ; preds = %7, %6
  call void @llvm.lifetime.end.p0(i64 8, ptr %1) #7
  %16 = load i32, ptr %2, align 4
  switch i32 %16, label %18 [
    i32 0, label %17
    i32 1, label %17
  ]

17:                                               ; preds = %15, %15
  ret void

18:                                               ; preds = %15
  unreachable
}

; Function Attrs: nounwind uwtable
define internal void @kbd_cleanup_signal_action(i32 noundef %0, ptr noundef %1, ptr noundef %2) #0 {
  %4 = alloca i32, align 4
  %5 = alloca ptr, align 8
  %6 = alloca ptr, align 8
  %7 = alloca ptr, align 8
  %8 = alloca %struct.__sigset_t, align 8
  store i32 %0, ptr %4, align 4
  store ptr %1, ptr %5, align 8
  store ptr %2, ptr %6, align 8
  call void @llvm.lifetime.start.p0(i64 8, ptr %7) #7
  %9 = load i32, ptr %4, align 4
  %10 = sext i32 %9 to i64
  %11 = getelementptr inbounds [65 x %struct.sigaction], ptr @old_sigaction, i64 0, i64 %10
  store ptr %11, ptr %7, align 8
  call void @llvm.lifetime.start.p0(i64 128, ptr %8) #7
  %12 = load i32, ptr %4, align 4
  %13 = load ptr, ptr %7, align 8
  %14 = call i32 @sigaction(i32 noundef %12, ptr noundef %13, ptr noundef null) #7
  %15 = call i32 @sigemptyset(ptr noundef %8) #7
  %16 = load i32, ptr %4, align 4
  %17 = call i32 @sigaddset(ptr noundef %8, i32 noundef %16) #7
  %18 = call i32 @sigprocmask(i32 noundef 1, ptr noundef %8, ptr noundef null) #7
  %19 = load ptr, ptr %5, align 8
  store ptr %19, ptr @SDL_EVDEV_kdb_cleanup_siginfo, align 8
  %20 = load ptr, ptr %6, align 8
  store ptr %20, ptr @SDL_EVDEV_kdb_cleanup_ucontext, align 8
  call void @kbd_cleanup()
  %21 = load i32, ptr %4, align 4
  call void @SDL_EVDEV_kbd_reraise_signal(i32 noundef %21)
  call void @llvm.lifetime.end.p0(i64 128, ptr %8) #7
  call void @llvm.lifetime.end.p0(i64 8, ptr %7) #7
  ret void
}