; Function Attrs: nounwind uwtable
define internal void @kbd_cleanup_signal_action(i32 noundef %0, ptr noundef %1, ptr noundef %2) #0 {
  %4 = alloca %struct.__sigset_t, align 8
  %5 = sext i32 %0 to i64
  %6 = getelementptr inbounds [65 x %struct.sigaction], ptr @old_sigaction, i64 0, i64 %5
  call void @llvm.lifetime.start.p0(i64 128, ptr nonnull %4) #12
  %7 = tail call i32 @sigaction(i32 noundef %0, ptr noundef nonnull %6, ptr noundef null) #12
  %8 = call i32 @sigemptyset(ptr noundef nonnull %4) #12
  %9 = call i32 @sigaddset(ptr noundef nonnull %4, i32 noundef %0) #12
  %10 = call i32 @sigprocmask(i32 noundef 1, ptr noundef nonnull %4, ptr noundef null) #12
  store ptr %1, ptr @SDL_EVDEV_kdb_cleanup_siginfo, align 8
  store ptr %2, ptr @SDL_EVDEV_kdb_cleanup_ucontext, align 8
  %11 = load ptr, ptr @kbd_cleanup_state, align 8
  %.not.i = icmp eq ptr %11, null
  br i1 %.not.i, label %kbd_cleanup.exit, label %12

12:                                               ; preds = %3
  store ptr null, ptr @kbd_cleanup_state, align 8
  %13 = load i32, ptr %11, align 8
  %14 = getelementptr inbounds nuw i8, ptr %11, i64 8
  %15 = load i32, ptr %14, align 8
  %16 = call i32 (i32, i64, ...) @ioctl(i32 noundef %13, i64 noundef 19269, i32 noundef %15) #12
  br label %kbd_cleanup.exit

kbd_cleanup.exit:                                 ; preds = %3, %12
  %17 = call i32 @raise(i32 noundef %0) #12
  call void @llvm.lifetime.end.p0(i64 128, ptr nonnull %4) #12
  ret void
}